target datalayout = "e-m:e-p270:32:32-p271:32:32-p272:64:64-i64:64-i128:128-f80:128-n8:16:32:64-S128"
target triple = "x86_64-pc-linux-gnu"

@.str.53 = private unnamed_addr constant [7 x i8] c"vector\00", align 1
@.str.54 = private unnamed_addr constant [8 x i8] c"__index\00", align 1
@.str.55 = private unnamed_addr constant [11 x i8] c"__namecall\00", align 1

; Function Attrs: mustprogress uwtable
define dso_local void @_Z18setupVectorHelpersP9lua_State(ptr noundef %0) #4 {
  %2 = alloca ptr, align 8
  store ptr %0, ptr %2, align 8
  %3 = load ptr, ptr %2, align 8
  call void @_Z17lua_pushcclosurekP9lua_StatePFiS0_EPKciPFiS0_iE(ptr noundef %3, ptr noundef @_ZL10lua_vectorP9lua_State, ptr noundef @.str.53, i32 noundef 0, ptr noundef null)
  %4 = load ptr, ptr %2, align 8
  call void @_Z12lua_setfieldP9lua_StateiPKc(ptr noundef %4, i32 noundef -10002, ptr noundef @.str.53)
  %5 = load ptr, ptr %2, align 8
  call void @_Z14lua_pushvectorP9lua_Statefff(ptr noundef %5, float noundef 0.000000e+00, float noundef 0.000000e+00, float noundef 0.000000e+00)
  %6 = load ptr, ptr %2, align 8
  %7 = call noundef i32 @_Z17luaL_newmetatableP9lua_StatePKc(ptr noundef %6, ptr noundef @.str.53)
  %8 = load ptr, ptr %2, align 8
  call void @_Z14lua_pushstringP9lua_StatePKc(ptr noundef %8, ptr noundef @.str.54)
  %9 = load ptr, ptr %2, align 8
  call void @_Z17lua_pushcclosurekP9lua_StatePFiS0_EPKciPFiS0_iE(ptr noundef %9, ptr noundef @_ZL16lua_vector_indexP9lua_State, ptr noundef null, i32 noundef 0, ptr noundef null)
  %10 = load ptr, ptr %2, align 8
  call void @_Z12lua_settableP9lua_Statei(ptr noundef %10, i32 noundef -3)
  %11 = load ptr, ptr %2, align 8
  call void @_Z14lua_pushstringP9lua_StatePKc(ptr noundef %11, ptr noundef @.str.55)
  %12 = load ptr, ptr %2, align 8
  call void @_Z17lua_pushcclosurekP9lua_StatePFiS0_EPKciPFiS0_iE(ptr noundef %12, ptr noundef @_ZL19lua_vector_namecallP9lua_State, ptr noundef null, i32 noundef 0, ptr noundef null)
  %13 = load ptr, ptr %2, align 8
  call void @_Z12lua_settableP9lua_Statei(ptr noundef %13, i32 noundef -3)
  %14 = load ptr, ptr %2, align 8
  call void @_Z15lua_setreadonlyP9lua_Stateii(ptr noundef %14, i32 noundef -1, i32 noundef 1)
  %15 = load ptr, ptr %2, align 8
  %16 = call noundef i32 @_Z16lua_setmetatableP9lua_Statei(ptr noundef %15, i32 noundef -2)
  %17 = load ptr, ptr %2, align 8
  call void @_Z10lua_settopP9lua_Statei(ptr noundef %17, i32 noundef -2)
  ret void
}