; Function Attrs: mustprogress uwtable
define dso_local void @_Z18setupVectorHelpersP9lua_State(ptr noundef %0) local_unnamed_addr #4 {
  tail call void @_Z17lua_pushcclosurekP9lua_StatePFiS0_EPKciPFiS0_iE(ptr noundef %0, ptr noundef nonnull @_ZL10lua_vectorP9lua_State, ptr noundef nonnull @.str.53, i32 noundef 0, ptr noundef null)
  tail call void @_Z12lua_setfieldP9lua_StateiPKc(ptr noundef %0, i32 noundef -10002, ptr noundef nonnull @.str.53)
  tail call void @_Z14lua_pushvectorP9lua_Statefff(ptr noundef %0, float noundef 0.000000e+00, float noundef 0.000000e+00, float noundef 0.000000e+00)
  %2 = tail call noundef i32 @_Z17luaL_newmetatableP9lua_StatePKc(ptr noundef %0, ptr noundef nonnull @.str.53)
  tail call void @_Z14lua_pushstringP9lua_StatePKc(ptr noundef %0, ptr noundef nonnull @.str.54)
  tail call void @_Z17lua_pushcclosurekP9lua_StatePFiS0_EPKciPFiS0_iE(ptr noundef %0, ptr noundef nonnull @_ZL16lua_vector_indexP9lua_State, ptr noundef null, i32 noundef 0, ptr noundef null)
  tail call void @_Z12lua_settableP9lua_Statei(ptr noundef %0, i32 noundef -3)
  tail call void @_Z14lua_pushstringP9lua_StatePKc(ptr noundef %0, ptr noundef nonnull @.str.55)
  tail call void @_Z17lua_pushcclosurekP9lua_StatePFiS0_EPKciPFiS0_iE(ptr noundef %0, ptr noundef nonnull @_ZL19lua_vector_namecallP9lua_State, ptr noundef null, i32 noundef 0, ptr noundef null)
  tail call void @_Z12lua_settableP9lua_Statei(ptr noundef %0, i32 noundef -3)
  tail call void @_Z15lua_setreadonlyP9lua_Stateii(ptr noundef %0, i32 noundef -1, i32 noundef 1)
  %3 = tail call noundef i32 @_Z16lua_setmetatableP9lua_Statei(ptr noundef %0, i32 noundef -2)
  tail call void @_Z10lua_settopP9lua_Statei(ptr noundef %0, i32 noundef -2)
  ret void
}